; Function Attrs: nounwind uwtable
define internal void @operator_free(ptr noundef readonly captures(none) %0) #0 {
  %2 = getelementptr i8, ptr %0, i64 32
  %.val.i = load ptr, ptr %2, align 8, !tbaa !4
  %3 = getelementptr inbounds nuw i8, ptr %.val.i, i64 8
  %4 = load ptr, ptr %3, align 8, !tbaa !17
  %.not.i = icmp eq ptr %4, null
  br i1 %.not.i, label %Py_DECREF.exit.i, label %5

5:                                                ; preds = %1
  store ptr null, ptr %3, align 8, !tbaa !17
  %6 = load i32, ptr %4, align 8, !tbaa !18
  %.not.i.i = icmp sgt i32 %6, -1
  br i1 %.not.i.i, label %7, label %Py_DECREF.exit.i

7:                                                ; preds = %5
  %8 = add nsw i32 %6, -1
  store i32 %8, ptr %4, align 8, !tbaa !18
  %9 = icmp eq i32 %8, 0
  br i1 %9, label %10, label %Py_DECREF.exit.i

10:                                               ; preds = %7
  tail call void @_Py_Dealloc(ptr noundef nonnull %4) #7
  br label %Py_DECREF.exit.i

Py_DECREF.exit.i:                                 ; preds = %10, %7, %5, %1
  %11 = load ptr, ptr %.val.i, align 8, !tbaa !17
  %.not18.i = icmp eq ptr %11, null
  br i1 %.not18.i, label %Py_DECREF.exit21.i, label %12

12:                                               ; preds = %Py_DECREF.exit.i
  store ptr null, ptr %.val.i, align 8, !tbaa !17
  %13 = load i32, ptr %11, align 8, !tbaa !18
  %.not.i20.i = icmp sgt i32 %13, -1
  br i1 %.not.i20.i, label %14, label %Py_DECREF.exit21.i

14:                                               ; preds = %12
  %15 = add nsw i32 %13, -1
  store i32 %15, ptr %11, align 8, !tbaa !18
  %16 = icmp eq i32 %15, 0
  br i1 %16, label %17, label %Py_DECREF.exit21.i

17:                                               ; preds = %14
  tail call void @_Py_Dealloc(ptr noundef nonnull %11) #7
  br label %Py_DECREF.exit21.i

Py_DECREF.exit21.i:                               ; preds = %17, %14, %12, %Py_DECREF.exit.i
  %18 = getelementptr inbounds nuw i8, ptr %.val.i, i64 16
  %19 = load ptr, ptr %18, align 8, !tbaa !17
  %.not19.i = icmp eq ptr %19, null
  br i1 %.not19.i, label %operator_clear.exit, label %20

20:                                               ; preds = %Py_DECREF.exit21.i
  store ptr null, ptr %18, align 8, !tbaa !17
  %21 = load i32, ptr %19, align 8, !tbaa !18
  %.not.i22.i = icmp sgt i32 %21, -1
  br i1 %.not.i22.i, label %22, label %operator_clear.exit

22:                                               ; preds = %20
  %23 = add nsw i32 %21, -1
  store i32 %23, ptr %19, align 8, !tbaa !18
  %24 = icmp eq i32 %23, 0
  br i1 %24, label %25, label %operator_clear.exit

25:                                               ; preds = %22
  tail call void @_Py_Dealloc(ptr noundef nonnull %19) #7
  br label %operator_clear.exit

operator_clear.exit:                              ; preds = %Py_DECREF.exit21.i, %20, %22, %25
  ret void
}